; Function Attrs: mustprogress nounwind uwtable
define dso_local void @_ZN4llvm13StackLifetime5printERNS_11raw_ostreamE(ptr noundef nonnull align 8 dereferenceable(1329) %0, ptr noundef nonnull align 8 dereferenceable(48) %1) local_unnamed_addr #1 align 2 {
  %3 = alloca %"class.llvm::StackLifetime::LifetimeAnnotationWriter", align 8
  store ptr getelementptr inbounds inrange(-16, 56) (i8, ptr @_ZTVN4llvm13StackLifetime24LifetimeAnnotationWriterE, i64 16), ptr %3, align 8
  %4 = getelementptr inbounds nuw i8, ptr %3, i64 8
  store ptr %0, ptr %4, align 8
  %5 = load ptr, ptr %0, align 8
  call void @_ZNK4llvm8Function5printERNS_11raw_ostreamEPNS_24AssemblyAnnotationWriterEbb(ptr noundef nonnull align 8 dereferenceable(136) %5, ptr noundef nonnull align 8 dereferenceable(48) %1, ptr noundef nonnull %3, i1 noundef zeroext false, i1 noundef zeroext false) #18
  call void @_ZN4llvm24AssemblyAnnotationWriterD2Ev(ptr noundef nonnull align 8 dereferenceable(8) %3) #18
  ret void
}